target datalayout = "e-m:e-p270:32:32-p271:32:32-p272:64:64-i64:64-i128:128-f80:128-n8:16:32:64-S128"
target triple = "x86_64-unknown-linux-gnu"

%"class.QuantLib::MarketModelPathwiseDiscounter" = type { i64, i64, double, double, %"class.std::vector" }
%"class.std::vector" = type { %"struct.std::_Vector_base" }
%"struct.std::_Vector_base" = type { %"struct.std::_Vector_base<double, std::allocator<double>>::_Vector_impl" }
%"struct.std::_Vector_base<double, std::allocator<double>>::_Vector_impl" = type { %"struct.std::_Vector_base<double, std::allocator<double>>::_Vector_impl_data" }
%"struct.std::_Vector_base<double, std::allocator<double>>::_Vector_impl_data" = type { ptr, ptr, ptr }
%"class.QuantLib::Matrix" = type { %"class.std::unique_ptr", i64, i64 }
%"class.std::unique_ptr" = type { %"struct.std::__uniq_ptr_data" }
%"struct.std::__uniq_ptr_data" = type { %"class.std::__uniq_ptr_impl" }
%"class.std::__uniq_ptr_impl" = type { %"class.std::tuple" }
%"class.std::tuple" = type { %"struct.std::_Tuple_impl" }
%"struct.std::_Tuple_impl" = type { %"struct.std::_Head_base.1" }
%"struct.std::_Head_base.1" = type { ptr }

; Function Attrs: mustprogress nounwind uwtable
define linkonce_odr noundef nonnull align 8 dereferenceable(8) ptr @_ZNSt10_Head_baseILm0EPdLb0EE7_M_headERKS1_(ptr noundef nonnull align 8 dereferenceable(8) %__b) #1 comdat align 2 {
entry:
  %__b.addr = alloca ptr, align 8
  store ptr %__b, ptr %__b.addr, align 8, !tbaa !3
  %0 = load ptr, ptr %__b.addr, align 8, !tbaa !3
  %_M_head_impl = getelementptr inbounds nuw %"struct.std::_Head_base.1", ptr %0, i32 0, i32 0
  ret ptr %_M_head_impl
}

; Function Attrs: mustprogress nounwind uwtable
define linkonce_odr noundef nonnull align 8 dereferenceable(8) ptr @_ZNSt11_Tuple_implILm0EJPdSt14default_deleteIA_dEEE7_M_headERKS4_(ptr noundef nonnull align 8 dereferenceable(8) %__t) #1 comdat align 2 {
entry:
  %__t.addr = alloca ptr, align 8
  store ptr %__t, ptr %__t.addr, align 8, !tbaa !3
  %0 = load ptr, ptr %__t.addr, align 8, !tbaa !3
  %call = call noundef nonnull align 8 dereferenceable(8) ptr @_ZNSt10_Head_baseILm0EPdLb0EE7_M_headERKS1_(ptr noundef nonnull align 8 dereferenceable(8) %0) #14
  ret ptr %call
}

; Function Attrs: mustprogress nounwind uwtable
define linkonce_odr noundef nonnull align 8 dereferenceable(8) ptr @_ZSt12__get_helperILm0EPdJSt14default_deleteIA_dEEERKT0_RKSt11_Tuple_implIXT_EJS4_DpT1_EE(ptr noundef nonnull align 8 dereferenceable(8) %__t) #1 comdat {
entry:
  %__t.addr = alloca ptr, align 8
  store ptr %__t, ptr %__t.addr, align 8, !tbaa !3
  %0 = load ptr, ptr %__t.addr, align 8, !tbaa !3
  %call = call noundef nonnull align 8 dereferenceable(8) ptr @_ZNSt11_Tuple_implILm0EJPdSt14default_deleteIA_dEEE7_M_headERKS4_(ptr noundef nonnull align 8 dereferenceable(8) %0) #14
  ret ptr %call
}

; Function Attrs: mustprogress nounwind uwtable
define linkonce_odr noundef nonnull align 8 dereferenceable(8) ptr @_ZSt3getILm0EJPdSt14default_deleteIA_dEEERKNSt13tuple_elementIXT_ESt5tupleIJDpT0_EEE4typeERKS8_(ptr noundef nonnull align 8 dereferenceable(8) %__t) #1 comdat {
entry:
  %__t.addr = alloca ptr, align 8
  store ptr %__t, ptr %__t.addr, align 8, !tbaa !3
  %0 = load ptr, ptr %__t.addr, align 8, !tbaa !3
  %call = call noundef nonnull align 8 dereferenceable(8) ptr @_ZSt12__get_helperILm0EPdJSt14default_deleteIA_dEEERKT0_RKSt11_Tuple_implIXT_EJS4_DpT1_EE(ptr noundef nonnull align 8 dereferenceable(8) %0) #14
  ret ptr %call
}

; Function Attrs: mustprogress nounwind uwtable
define linkonce_odr noundef ptr @_ZNKSt15__uniq_ptr_implIdSt14default_deleteIA_dEE6_M_ptrEv(ptr noundef nonnull align 8 dereferenceable(8) %this) #1 comdat align 2 {
entry:
  %this.addr = alloca ptr, align 8
  store ptr %this, ptr %this.addr, align 8, !tbaa !3
  %this1 = load ptr, ptr %this.addr, align 8
  %_M_t = getelementptr inbounds nuw %"class.std::__uniq_ptr_impl", ptr %this1, i32 0, i32 0
  %call = call noundef nonnull align 8 dereferenceable(8) ptr @_ZSt3getILm0EJPdSt14default_deleteIA_dEEERKNSt13tuple_elementIXT_ESt5tupleIJDpT0_EEE4typeERKS8_(ptr noundef nonnull align 8 dereferenceable(8) %_M_t) #14
  %0 = load ptr, ptr %call, align 8, !tbaa !3
  ret ptr %0
}

; Function Attrs: mustprogress nounwind uwtable
define linkonce_odr noundef ptr @_ZNKSt10unique_ptrIA_dSt14default_deleteIS0_EE3getEv(ptr noundef nonnull align 8 dereferenceable(8) %this) #1 comdat align 2 {
entry:
  %this.addr = alloca ptr, align 8
  store ptr %this, ptr %this.addr, align 8, !tbaa !3
  %this1 = load ptr, ptr %this.addr, align 8
  %_M_t = getelementptr inbounds nuw %"class.std::unique_ptr", ptr %this1, i32 0, i32 0
  %call = call noundef ptr @_ZNKSt15__uniq_ptr_implIdSt14default_deleteIA_dEE6_M_ptrEv(ptr noundef nonnull align 8 dereferenceable(8) %_M_t) #14
  ret ptr %call
}

; Function Attrs: inlinehint mustprogress nounwind uwtable
define linkonce_odr noundef ptr @_ZNK8QuantLib6Matrix9row_beginEm(ptr noundef nonnull align 8 dereferenceable(24) %this, i64 noundef %i) #3 comdat align 2 {
entry:
  %this.addr = alloca ptr, align 8
  %i.addr = alloca i64, align 8
  store ptr %this, ptr %this.addr, align 8, !tbaa !3
  store i64 %i, ptr %i.addr, align 8, !tbaa !19
  %this1 = load ptr, ptr %this.addr, align 8
  %data_ = getelementptr inbounds nuw %"class.QuantLib::Matrix", ptr %this1, i32 0, i32 0
  %call = call noundef ptr @_ZNKSt10unique_ptrIA_dSt14default_deleteIS0_EE3getEv(ptr noundef nonnull align 8 dereferenceable(8) %data_) #14
  %columns_ = getelementptr inbounds nuw %"class.QuantLib::Matrix", ptr %this1, i32 0, i32 2
  %0 = load i64, ptr %columns_, align 8, !tbaa !31
  %1 = load i64, ptr %i.addr, align 8, !tbaa !19
  %mul = mul i64 %0, %1
  %add.ptr = getelementptr inbounds nuw double, ptr %call, i64 %mul
  ret ptr %add.ptr
}

; Function Attrs: mustprogress nounwind uwtable
define linkonce_odr noundef nonnull align 8 dereferenceable(8) ptr @_ZNKSt6vectorIdSaIdEEixEm(ptr noundef nonnull align 8 dereferenceable(24) %this, i64 noundef %__n) #1 comdat align 2 {
entry:
  %this.addr = alloca ptr, align 8
  %__n.addr = alloca i64, align 8
  store ptr %this, ptr %this.addr, align 8, !tbaa !3
  store i64 %__n, ptr %__n.addr, align 8, !tbaa !19
  %this1 = load ptr, ptr %this.addr, align 8
  %_M_impl = getelementptr inbounds nuw %"struct.std::_Vector_base", ptr %this1, i32 0, i32 0
  %_M_start = getelementptr inbounds nuw %"struct.std::_Vector_base<double, std::allocator<double>>::_Vector_impl_data", ptr %_M_impl, i32 0, i32 0
  %0 = load ptr, ptr %_M_start, align 8, !tbaa !23
  %1 = load i64, ptr %__n.addr, align 8, !tbaa !19
  %add.ptr = getelementptr inbounds nuw double, ptr %0, i64 %1
  ret ptr %add.ptr
}

; Function Attrs: mustprogress nounwind uwtable
define linkonce_odr noundef nonnull align 8 dereferenceable(8) ptr @_ZNSt6vectorIdSaIdEEixEm(ptr noundef nonnull align 8 dereferenceable(24) %this, i64 noundef %__n) #1 comdat align 2 {
entry:
  %this.addr = alloca ptr, align 8
  %__n.addr = alloca i64, align 8
  store ptr %this, ptr %this.addr, align 8, !tbaa !3
  store i64 %__n, ptr %__n.addr, align 8, !tbaa !19
  %this1 = load ptr, ptr %this.addr, align 8
  %_M_impl = getelementptr inbounds nuw %"struct.std::_Vector_base", ptr %this1, i32 0, i32 0
  %_M_start = getelementptr inbounds nuw %"struct.std::_Vector_base<double, std::allocator<double>>::_Vector_impl_data", ptr %_M_impl, i32 0, i32 0
  %0 = load ptr, ptr %_M_start, align 8, !tbaa !23
  %1 = load i64, ptr %__n.addr, align 8, !tbaa !19
  %add.ptr = getelementptr inbounds nuw double, ptr %0, i64 %1
  ret ptr %add.ptr
}

; Function Attrs: inlinehint mustprogress uwtable
define linkonce_odr noundef ptr @_ZNK8QuantLib6MatrixixEm(ptr noundef nonnull align 8 dereferenceable(24) %this, i64 noundef %i) #5 comdat align 2 {
entry:
  %this.addr = alloca ptr, align 8
  %i.addr = alloca i64, align 8
  store ptr %this, ptr %this.addr, align 8, !tbaa !3
  store i64 %i, ptr %i.addr, align 8, !tbaa !19
  %this1 = load ptr, ptr %this.addr, align 8
  %0 = load i64, ptr %i.addr, align 8, !tbaa !19
  %call = call noundef ptr @_ZNK8QuantLib6Matrix9row_beginEm(ptr noundef nonnull align 8 dereferenceable(24) %this1, i64 noundef %0)
  ret ptr %call
}

; Function Attrs: mustprogress uwtable
define void @_ZNK8QuantLib29MarketModelPathwiseDiscounter10getFactorsERKNS_6MatrixES3_mRSt6vectorIdSaIdEE(ptr noundef nonnull align 8 dereferenceable(56) %this, ptr noundef nonnull align 8 dereferenceable(24) %0, ptr noundef nonnull align 8 dereferenceable(24) %Discounts, i64 noundef %currentStep, ptr noundef nonnull align 8 dereferenceable(24) %factors) #0 align 2 {
entry:
  %this.addr = alloca ptr, align 8
  %.addr = alloca ptr, align 8
  %Discounts.addr = alloca ptr, align 8
  %currentStep.addr = alloca i64, align 8
  %factors.addr = alloca ptr, align 8
  %preDF = alloca double, align 8
  %postDF = alloca double, align 8
  %i = alloca i64, align 8
  %i11 = alloca i64, align 8
  %cleanup.dest.slot = alloca i32, align 4
  %df = alloca double, align 8
  %i37 = alloca i64, align 8
  store ptr %this, ptr %this.addr, align 8, !tbaa !3
  store ptr %0, ptr %.addr, align 8, !tbaa !3
  store ptr %Discounts, ptr %Discounts.addr, align 8, !tbaa !3
  store i64 %currentStep, ptr %currentStep.addr, align 8, !tbaa !19
  store ptr %factors, ptr %factors.addr, align 8, !tbaa !3
  %this1 = load ptr, ptr %this.addr, align 8
  call void @llvm.lifetime.start.p0(i64 8, ptr %preDF) #14
  %1 = load ptr, ptr %Discounts.addr, align 8, !tbaa !3
  %2 = load i64, ptr %currentStep.addr, align 8, !tbaa !19
  %call = call noundef ptr @_ZNK8QuantLib6MatrixixEm(ptr noundef nonnull align 8 dereferenceable(24) %1, i64 noundef %2)
  %before_ = getelementptr inbounds nuw %"class.QuantLib::MarketModelPathwiseDiscounter", ptr %this1, i32 0, i32 0
  %3 = load i64, ptr %before_, align 8, !tbaa !16
  %arrayidx = getelementptr inbounds nuw double, ptr %call, i64 %3
  %4 = load double, ptr %arrayidx, align 8, !tbaa !7
  store double %4, ptr %preDF, align 8, !tbaa !7
  call void @llvm.lifetime.start.p0(i64 8, ptr %postDF) #14
  %5 = load ptr, ptr %Discounts.addr, align 8, !tbaa !3
  %6 = load i64, ptr %currentStep.addr, align 8, !tbaa !19
  %call2 = call noundef ptr @_ZNK8QuantLib6MatrixixEm(ptr noundef nonnull align 8 dereferenceable(24) %5, i64 noundef %6)
  %before_3 = getelementptr inbounds nuw %"class.QuantLib::MarketModelPathwiseDiscounter", ptr %this1, i32 0, i32 0
  %7 = load i64, ptr %before_3, align 8, !tbaa !16
  %add = add i64 %7, 1
  %arrayidx4 = getelementptr inbounds nuw double, ptr %call2, i64 %add
  %8 = load double, ptr %arrayidx4, align 8, !tbaa !7
  store double %8, ptr %postDF, align 8, !tbaa !7
  call void @llvm.lifetime.start.p0(i64 8, ptr %i) #14
  %before_5 = getelementptr inbounds nuw %"class.QuantLib::MarketModelPathwiseDiscounter", ptr %this1, i32 0, i32 0
  %9 = load i64, ptr %before_5, align 8, !tbaa !16
  %add6 = add i64 %9, 1
  store i64 %add6, ptr %i, align 8, !tbaa !19
  br label %for.cond

for.cond:                                         ; preds = %for.inc, %entry
  %10 = load i64, ptr %i, align 8, !tbaa !19
  %numberRates_ = getelementptr inbounds nuw %"class.QuantLib::MarketModelPathwiseDiscounter", ptr %this1, i32 0, i32 1
  %11 = load i64, ptr %numberRates_, align 8, !tbaa !9
  %cmp = icmp ult i64 %10, %11
  br i1 %cmp, label %for.body, label %for.cond.cleanup

for.cond.cleanup:                                 ; preds = %for.cond
  call void @llvm.lifetime.end.p0(i64 8, ptr %i) #14
  br label %for.end

for.body:                                         ; preds = %for.cond
  %12 = load ptr, ptr %factors.addr, align 8, !tbaa !3
  %13 = load i64, ptr %i, align 8, !tbaa !19
  %add7 = add i64 %13, 1
  %call8 = call noundef nonnull align 8 dereferenceable(8) ptr @_ZNSt6vectorIdSaIdEEixEm(ptr noundef nonnull align 8 dereferenceable(24) %12, i64 noundef %add7) #14
  store double 0.000000e+00, ptr %call8, align 8, !tbaa !7
  br label %for.inc

for.inc:                                          ; preds = %for.body
  %14 = load i64, ptr %i, align 8, !tbaa !19
  %inc = add i64 %14, 1
  store i64 %inc, ptr %i, align 8, !tbaa !19
  br label %for.cond, !llvm.loop !25

for.end:                                          ; preds = %for.cond.cleanup
  %postWeight_ = getelementptr inbounds nuw %"class.QuantLib::MarketModelPathwiseDiscounter", ptr %this1, i32 0, i32 3
  %15 = load double, ptr %postWeight_, align 8, !tbaa !18
  %cmp9 = fcmp oeq double %15, 0.000000e+00
  br i1 %cmp9, label %if.then, label %if.end

if.then:                                          ; preds = %for.end
  %16 = load double, ptr %preDF, align 8, !tbaa !7
  %17 = load ptr, ptr %factors.addr, align 8, !tbaa !3
  %call10 = call noundef nonnull align 8 dereferenceable(8) ptr @_ZNSt6vectorIdSaIdEEixEm(ptr noundef nonnull align 8 dereferenceable(24) %17, i64 noundef 0) #14
  store double %16, ptr %call10, align 8, !tbaa !7
  call void @llvm.lifetime.start.p0(i64 8, ptr %i11) #14
  store i64 0, ptr %i11, align 8, !tbaa !19
  br label %for.cond12

for.cond12:                                       ; preds = %for.inc26, %if.then
  %18 = load i64, ptr %i11, align 8, !tbaa !19
  %before_13 = getelementptr inbounds nuw %"class.QuantLib::MarketModelPathwiseDiscounter", ptr %this1, i32 0, i32 0
  %19 = load i64, ptr %before_13, align 8, !tbaa !16
  %cmp14 = icmp ult i64 %18, %19
  br i1 %cmp14, label %for.body16, label %for.cond.cleanup15

for.cond.cleanup15:                               ; preds = %for.cond12
  call void @llvm.lifetime.end.p0(i64 8, ptr %i11) #14
  br label %for.end28

for.body16:                                       ; preds = %for.cond12
  %20 = load double, ptr %preDF, align 8, !tbaa !7
  %fneg = fneg double %20
  %taus_ = getelementptr inbounds nuw %"class.QuantLib::MarketModelPathwiseDiscounter", ptr %this1, i32 0, i32 4
  %21 = load i64, ptr %i11, align 8, !tbaa !19
  %call17 = call noundef nonnull align 8 dereferenceable(8) ptr @_ZNKSt6vectorIdSaIdEEixEm(ptr noundef nonnull align 8 dereferenceable(24) %taus_, i64 noundef %21) #14
  %22 = load double, ptr %call17, align 8, !tbaa !7
  %mul = fmul double %fneg, %22
  %23 = load ptr, ptr %Discounts.addr, align 8, !tbaa !3
  %24 = load i64, ptr %currentStep.addr, align 8, !tbaa !19
  %call18 = call noundef ptr @_ZNK8QuantLib6MatrixixEm(ptr noundef nonnull align 8 dereferenceable(24) %23, i64 noundef %24)
  %25 = load i64, ptr %i11, align 8, !tbaa !19
  %add19 = add i64 %25, 1
  %arrayidx20 = getelementptr inbounds nuw double, ptr %call18, i64 %add19
  %26 = load double, ptr %arrayidx20, align 8, !tbaa !7
  %mul21 = fmul double %mul, %26
  %27 = load ptr, ptr %Discounts.addr, align 8, !tbaa !3
  %28 = load i64, ptr %currentStep.addr, align 8, !tbaa !19
  %call22 = call noundef ptr @_ZNK8QuantLib6MatrixixEm(ptr noundef nonnull align 8 dereferenceable(24) %27, i64 noundef %28)
  %29 = load i64, ptr %i11, align 8, !tbaa !19
  %arrayidx23 = getelementptr inbounds nuw double, ptr %call22, i64 %29
  %30 = load double, ptr %arrayidx23, align 8, !tbaa !7
  %div = fdiv double %mul21, %30
  %31 = load ptr, ptr %factors.addr, align 8, !tbaa !3
  %32 = load i64, ptr %i11, align 8, !tbaa !19
  %add24 = add i64 %32, 1
  %call25 = call noundef nonnull align 8 dereferenceable(8) ptr @_ZNSt6vectorIdSaIdEEixEm(ptr noundef nonnull align 8 dereferenceable(24) %31, i64 noundef %add24) #14
  store double %div, ptr %call25, align 8, !tbaa !7
  br label %for.inc26

for.inc26:                                        ; preds = %for.body16
  %33 = load i64, ptr %i11, align 8, !tbaa !19
  %inc27 = add i64 %33, 1
  store i64 %inc27, ptr %i11, align 8, !tbaa !19
  br label %for.cond12, !llvm.loop !26

for.end28:                                        ; preds = %for.cond.cleanup15
  %34 = load ptr, ptr %factors.addr, align 8, !tbaa !3
  %before_29 = getelementptr inbounds nuw %"class.QuantLib::MarketModelPathwiseDiscounter", ptr %this1, i32 0, i32 0
  %35 = load i64, ptr %before_29, align 8, !tbaa !16
  %add30 = add i64 %35, 1
  %call31 = call noundef nonnull align 8 dereferenceable(8) ptr @_ZNSt6vectorIdSaIdEEixEm(ptr noundef nonnull align 8 dereferenceable(24) %34, i64 noundef %add30) #14
  store double 0.000000e+00, ptr %call31, align 8, !tbaa !7
  store i32 1, ptr %cleanup.dest.slot, align 4
  br label %cleanup

if.end:                                           ; preds = %for.end
  call void @llvm.lifetime.start.p0(i64 8, ptr %df) #14
  %36 = load double, ptr %preDF, align 8, !tbaa !7
  %37 = load double, ptr %postDF, align 8, !tbaa !7
  %38 = load double, ptr %preDF, align 8, !tbaa !7
  %div32 = fdiv double %37, %38
  %postWeight_33 = getelementptr inbounds nuw %"class.QuantLib::MarketModelPathwiseDiscounter", ptr %this1, i32 0, i32 3
  %39 = load double, ptr %postWeight_33, align 8, !tbaa !18
  %call34 = call double @pow(double noundef %div32, double noundef %39) #14, !tbaa !27
  %mul35 = fmul double %36, %call34
  store double %mul35, ptr %df, align 8, !tbaa !7
  %40 = load double, ptr %df, align 8, !tbaa !7
  %41 = load ptr, ptr %factors.addr, align 8, !tbaa !3
  %call36 = call noundef nonnull align 8 dereferenceable(8) ptr @_ZNSt6vectorIdSaIdEEixEm(ptr noundef nonnull align 8 dereferenceable(24) %41, i64 noundef 0) #14
  store double %40, ptr %call36, align 8, !tbaa !7
  call void @llvm.lifetime.start.p0(i64 8, ptr %i37) #14
  store i64 0, ptr %i37, align 8, !tbaa !19
  br label %for.cond38

for.cond38:                                       ; preds = %for.inc56, %if.end
  %42 = load i64, ptr %i37, align 8, !tbaa !19
  %before_39 = getelementptr inbounds nuw %"class.QuantLib::MarketModelPathwiseDiscounter", ptr %this1, i32 0, i32 0
  %43 = load i64, ptr %before_39, align 8, !tbaa !16
  %cmp40 = icmp ule i64 %42, %43
  br i1 %cmp40, label %for.body42, label %for.cond.cleanup41

for.cond.cleanup41:                               ; preds = %for.cond38
  store i32 8, ptr %cleanup.dest.slot, align 4
  call void @llvm.lifetime.end.p0(i64 8, ptr %i37) #14
  br label %for.end58

for.body42:                                       ; preds = %for.cond38
  %44 = load double, ptr %df, align 8, !tbaa !7
  %fneg43 = fneg double %44
  %taus_44 = getelementptr inbounds nuw %"class.QuantLib::MarketModelPathwiseDiscounter", ptr %this1, i32 0, i32 4
  %45 = load i64, ptr %i37, align 8, !tbaa !19
  %call45 = call noundef nonnull align 8 dereferenceable(8) ptr @_ZNKSt6vectorIdSaIdEEixEm(ptr noundef nonnull align 8 dereferenceable(24) %taus_44, i64 noundef %45) #14
  %46 = load double, ptr %call45, align 8, !tbaa !7
  %mul46 = fmul double %fneg43, %46
  %47 = load ptr, ptr %Discounts.addr, align 8, !tbaa !3
  %48 = load i64, ptr %currentStep.addr, align 8, !tbaa !19
  %call47 = call noundef ptr @_ZNK8QuantLib6MatrixixEm(ptr noundef nonnull align 8 dereferenceable(24) %47, i64 noundef %48)
  %49 = load i64, ptr %i37, align 8, !tbaa !19
  %add48 = add i64 %49, 1
  %arrayidx49 = getelementptr inbounds nuw double, ptr %call47, i64 %add48
  %50 = load double, ptr %arrayidx49, align 8, !tbaa !7
  %mul50 = fmul double %mul46, %50
  %51 = load ptr, ptr %Discounts.addr, align 8, !tbaa !3
  %52 = load i64, ptr %currentStep.addr, align 8, !tbaa !19
  %call51 = call noundef ptr @_ZNK8QuantLib6MatrixixEm(ptr noundef nonnull align 8 dereferenceable(24) %51, i64 noundef %52)
  %53 = load i64, ptr %i37, align 8, !tbaa !19
  %arrayidx52 = getelementptr inbounds nuw double, ptr %call51, i64 %53
  %54 = load double, ptr %arrayidx52, align 8, !tbaa !7
  %div53 = fdiv double %mul50, %54
  %55 = load ptr, ptr %factors.addr, align 8, !tbaa !3
  %56 = load i64, ptr %i37, align 8, !tbaa !19
  %add54 = add i64 %56, 1
  %call55 = call noundef nonnull align 8 dereferenceable(8) ptr @_ZNSt6vectorIdSaIdEEixEm(ptr noundef nonnull align 8 dereferenceable(24) %55, i64 noundef %add54) #14
  store double %div53, ptr %call55, align 8, !tbaa !7
  br label %for.inc56

for.inc56:                                        ; preds = %for.body42
  %57 = load i64, ptr %i37, align 8, !tbaa !19
  %inc57 = add i64 %57, 1
  store i64 %inc57, ptr %i37, align 8, !tbaa !19
  br label %for.cond38, !llvm.loop !29

for.end58:                                        ; preds = %for.cond.cleanup41
  %postWeight_59 = getelementptr inbounds nuw %"class.QuantLib::MarketModelPathwiseDiscounter", ptr %this1, i32 0, i32 3
  %58 = load double, ptr %postWeight_59, align 8, !tbaa !18
  %59 = load ptr, ptr %factors.addr, align 8, !tbaa !3
  %before_60 = getelementptr inbounds nuw %"class.QuantLib::MarketModelPathwiseDiscounter", ptr %this1, i32 0, i32 0
  %60 = load i64, ptr %before_60, align 8, !tbaa !16
  %add61 = add i64 %60, 1
  %call62 = call noundef nonnull align 8 dereferenceable(8) ptr @_ZNSt6vectorIdSaIdEEixEm(ptr noundef nonnull align 8 dereferenceable(24) %59, i64 noundef %add61) #14
  %61 = load double, ptr %call62, align 8, !tbaa !7
  %mul63 = fmul double %61, %58
  store double %mul63, ptr %call62, align 8, !tbaa !7
  call void @llvm.lifetime.end.p0(i64 8, ptr %df) #14
  store i32 0, ptr %cleanup.dest.slot, align 4
  br label %cleanup

cleanup:                                          ; preds = %for.end58, %for.end28
  call void @llvm.lifetime.end.p0(i64 8, ptr %postDF) #14
  call void @llvm.lifetime.end.p0(i64 8, ptr %preDF) #14
  %cleanup.dest = load i32, ptr %cleanup.dest.slot, align 4
  switch i32 %cleanup.dest, label %unreachable [
    i32 0, label %cleanup.cont
    i32 1, label %cleanup.cont
  ]

cleanup.cont:                                     ; preds = %cleanup, %cleanup
  ret void

unreachable:                                      ; preds = %cleanup
  unreachable
}