; Function Attrs: mustprogress nofree nounwind memory(readwrite, inaccessiblemem: write) uwtable
define void @_ZNK8QuantLib29MarketModelPathwiseDiscounter10getFactorsERKNS_6MatrixES3_mRSt6vectorIdSaIdEE(ptr nocapture noundef nonnull readonly align 8 dereferenceable(56) %this, ptr nocapture noundef nonnull readnone align 8 dereferenceable(24) %0, ptr nocapture noundef nonnull readonly align 8 dereferenceable(24) %Discounts, i64 noundef %currentStep, ptr nocapture noundef nonnull readonly align 8 dereferenceable(24) %factors) local_unnamed_addr #2 align 2 {
entry:
  %1 = load ptr, ptr %Discounts, align 8, !tbaa !3
  %columns_.i.i = getelementptr inbounds nuw i8, ptr %Discounts, i64 16
  %2 = load i64, ptr %columns_.i.i, align 8, !tbaa !24
  %mul.i.i = mul i64 %2, %currentStep
  %add.ptr.i.i = getelementptr inbounds nuw double, ptr %1, i64 %mul.i.i
  %3 = load i64, ptr %this, align 8, !tbaa !32
  %arrayidx = getelementptr inbounds nuw double, ptr %add.ptr.i.i, i64 %3
  %4 = load double, ptr %arrayidx, align 8, !tbaa !15
  %add = add i64 %3, 1
  %arrayidx4 = getelementptr inbounds nuw double, ptr %add.ptr.i.i, i64 %add
  %5 = load double, ptr %arrayidx4, align 8, !tbaa !15
  %numberRates_ = getelementptr inbounds nuw i8, ptr %this, i64 8
  %6 = load i64, ptr %numberRates_, align 8, !tbaa !7
  %cmp58 = icmp ult i64 %add, %6
  br i1 %cmp58, label %for.body.lr.ph, label %for.cond.cleanup

for.body.lr.ph:                                   ; preds = %entry
  %7 = load ptr, ptr %factors, align 8, !tbaa !21
  %8 = shl i64 %3, 3
  %9 = getelementptr i8, ptr %7, i64 %8
  %scevgep = getelementptr i8, ptr %9, i64 16
  %10 = xor i64 %3, -1
  %11 = add i64 %6, %10
  %12 = shl nuw i64 %11, 3
  tail call void @llvm.memset.p0.i64(ptr align 8 %scevgep, i8 0, i64 %12, i1 false), !tbaa !15
  br label %for.cond.cleanup

for.cond.cleanup:                                 ; preds = %for.body.lr.ph, %entry
  %postWeight_ = getelementptr inbounds nuw i8, ptr %this, i64 24
  %13 = load double, ptr %postWeight_, align 8, !tbaa !19
  %cmp9 = fcmp oeq double %13, 0.000000e+00
  br i1 %cmp9, label %if.then, label %if.end

if.then:                                          ; preds = %for.cond.cleanup
  %14 = load ptr, ptr %factors, align 8, !tbaa !21
  store double %4, ptr %14, align 8, !tbaa !15
  %cmp1461.not = icmp eq i64 %3, 0
  br i1 %cmp1461.not, label %for.cond.cleanup15, label %for.body16.lr.ph

for.body16.lr.ph:                                 ; preds = %if.then
  %fneg = fneg double %4
  %taus_ = getelementptr inbounds nuw i8, ptr %this, i64 32
  %15 = load ptr, ptr %taus_, align 8, !tbaa !21
  br label %for.body16

for.cond.cleanup15:                               ; preds = %for.body16, %if.then
  %add.ptr.i39 = getelementptr inbounds nuw double, ptr %14, i64 %add
  store double 0.000000e+00, ptr %add.ptr.i39, align 8, !tbaa !15
  br label %cleanup

for.body16:                                       ; preds = %for.body16.lr.ph, %for.body16
  %i11.062 = phi i64 [ 0, %for.body16.lr.ph ], [ %add19, %for.body16 ]
  %add.ptr.i40 = getelementptr inbounds nuw double, ptr %15, i64 %i11.062
  %16 = load double, ptr %add.ptr.i40, align 8, !tbaa !15
  %mul = fmul double %16, %fneg
  %add19 = add nuw i64 %i11.062, 1
  %arrayidx20 = getelementptr inbounds nuw double, ptr %add.ptr.i.i, i64 %add19
  %17 = load double, ptr %arrayidx20, align 8, !tbaa !15
  %mul21 = fmul double %mul, %17
  %arrayidx23 = getelementptr inbounds nuw double, ptr %add.ptr.i.i, i64 %i11.062
  %18 = load double, ptr %arrayidx23, align 8, !tbaa !15
  %div = fdiv double %mul21, %18
  %add.ptr.i47 = getelementptr inbounds nuw double, ptr %14, i64 %add19
  store double %div, ptr %add.ptr.i47, align 8, !tbaa !15
  %exitcond63.not = icmp eq i64 %add19, %3
  br i1 %exitcond63.not, label %for.cond.cleanup15, label %for.body16, !llvm.loop !33

if.end:                                           ; preds = %for.cond.cleanup
  %div32 = fdiv double %5, %4
  %call34 = tail call double @pow(double noundef %div32, double noundef %13) #12, !tbaa !34
  %mul35 = fmul double %4, %call34
  %19 = load ptr, ptr %factors, align 8, !tbaa !21
  store double %mul35, ptr %19, align 8, !tbaa !15
  %fneg43 = fneg double %mul35
  %taus_44 = getelementptr inbounds nuw i8, ptr %this, i64 32
  %20 = load ptr, ptr %taus_44, align 8, !tbaa !21
  %umax = tail call i64 @llvm.umax.i64(i64 %add, i64 1)
  br label %for.body42

for.cond.cleanup41:                               ; preds = %for.body42
  %21 = load double, ptr %postWeight_, align 8, !tbaa !19
  %add.ptr.i49 = getelementptr inbounds nuw double, ptr %19, i64 %add
  %22 = load double, ptr %add.ptr.i49, align 8, !tbaa !15
  %mul63 = fmul double %21, %22
  store double %mul63, ptr %add.ptr.i49, align 8, !tbaa !15
  br label %cleanup

for.body42:                                       ; preds = %if.end, %for.body42
  %i37.060 = phi i64 [ 0, %if.end ], [ %add48, %for.body42 ]
  %add.ptr.i50 = getelementptr inbounds nuw double, ptr %20, i64 %i37.060
  %23 = load double, ptr %add.ptr.i50, align 8, !tbaa !15
  %mul46 = fmul double %23, %fneg43
  %add48 = add nuw i64 %i37.060, 1
  %arrayidx49 = getelementptr inbounds nuw double, ptr %add.ptr.i.i, i64 %add48
  %24 = load double, ptr %arrayidx49, align 8, !tbaa !15
  %mul50 = fmul double %mul46, %24
  %arrayidx52 = getelementptr inbounds nuw double, ptr %add.ptr.i.i, i64 %i37.060
  %25 = load double, ptr %arrayidx52, align 8, !tbaa !15
  %div53 = fdiv double %mul50, %25
  %add.ptr.i57 = getelementptr inbounds nuw double, ptr %19, i64 %add48
  store double %div53, ptr %add.ptr.i57, align 8, !tbaa !15
  %exitcond = icmp eq i64 %add48, %umax
  br i1 %exitcond, label %for.cond.cleanup41, label %for.body42, !llvm.loop !36

cleanup:                                          ; preds = %for.cond.cleanup41, %for.cond.cleanup15
  ret void
}